(lp1
(dp2
S'mutation rate'
p3
F0.050000000000000003
sS'cam speed'
p4
I2
sS'scale'
p5
F10
sS'stale min speed'
p6
F2
sS'width'
p7
I50
sS'keep elite'
p8
I2
sS'zoom bound'
p9
I20
sS'vertices'
p10
I5
sS'stale frames'
p11
I100
sS'gravity'
p12
I200
sS'height'
p13
I30
sS'spawn x'
p14
I15
sS'crossover rate'
p15
F0.59999999999999998
sS'population size'
p16
I10
sS'zoom factor'
p17
F1.1000000000000001
sS'ground pieces'
p18
I60
sS'max fps'
p19
I100
sS'wheels'
p20
I3
sS'spawn y'
p21
I25
sa(dp22
S'disp help'
p23
I01
sS'disp sim data'
p24
I01
sS'disp settings'
p25
I00
sS'disp car data'
p26
I01
sa(lp27
(lp28
F3.1041008051653223
aF4.3862113054576746
aF4.2128597735456914
aF4.887544756622292
aF3.182991445635158
aF0.23393852453522179
aF-0.55703117319712503
aF-0.4171420446818016
aF-0.27083430517224222
aF-0.38720204274890274
aF1.6090330854101458
aF2.7221071508441006
aF1.4392261636543773
aF1.1496489782465336
aF1.8911686475544842
aF1.2933464479184691
aF1.0747615155427073
aI0
aI1
aI4
aa(lp29
F2.8107378536303136
aF2.9417734452728901
aF3.0099652759954987
aF3.1589570963010236
aF1.8672289296150137
aF-0.3412691618906939
aF0.050829192611926199
aF0.50995875259416956
aF-0.47685302173367272
aF0.077081484189551408
aF1.5184791324137765
aF1.980144719330885
aF1.7936036655450578
aF2.6740871716469066
aF1.0457168639026788
aF1.2763613292335059
aF1.9368786175871038
aI3
aI0
aI3
aa(lp30
F1.6251868436597161
aF2.2532602787732596
aF3.4468127652576337
aF4.6007960458162156
aF2.1503191933705343
aF0.60501669079624421
aF0.24910919349431992
aF0.58237093907855075
aF0.35655188080049727
aF-0.52801935279318679
aF1.7755647459094774
aF2.6501283637071609
aF2.5188871963998749
aF2.3250885033371476
aF1.6908475198174668
aF0.82096893808507809
aF1.2282002062499802
aI2
aI2
aI2
aa(lp31
F4.20279318116647
aF3.7598091744087818
aF4.1892476382632005
aF2.4306115254251082
aF1.2461557067657978
aF-0.34623592630390604
aF0.27821740369325387
aF-0.28588371109137145
aF0.40353704285446601
aF0.61435007063254021
aF0.71991557940135564
aF2.8178856379629851
aF1.8966751664647816
aF2.7337261905657257
aF1.3228193491153906
aF0.99177193699810451
aF1.8092432554912634
aI3
aI4
aI2
aa(lp32
F3.8724763775175788
aF3.7978916762594523
aF2.1136728552098383
aF2.8823905882997436
aF1.4252919104971395
aF0.23238716340739329
aF0.47914070656334928
aF-0.61979230997435297
aF-0.32452425499744803
aF-0.15736129991030373
aF1.3173715929227801
aF2.050017711345598
aF2.2877672040805761
aF2.8047766537359013
aF1.8755533234700716
aF1.5509902577971404
aF1.8722531603416299
aI0
aI0
aI4
aa(lp33
F1.0075568718866386
aF4.5178786159281721
aF3.1672212356609979
aF4.7722929384245134
aF4.2217516088334861
aF-0.059346169602127796
aF-0.35489539419898125
aF0.012714055776835709
aF-0.5125247574599977
aF-0.34818847689770316
aF0.63738222053915228
aF2.1890033081840841
aF2.6323346869704465
aF2.6171927651845941
aF1.2125887370162567
aF1.8809482838524541
aF1.2067232372332373
aI2
aI4
aI0
aa(lp34
F3.0596809377324132
aF1.8519983686066435
aF3.6842634330745159
aF2.2521028022982188
aF4.390556513970739
aF-0.61355526017894557
aF-0.13971220590023725
aF0.33325762665398506
aF0.41357105482110446
aF0.14926174087576938
aF1.6613563494267929
aF2.8027646739279355
aF1.9904595020869067
aF2.0240807380255887
aF1.722490350298884
aF1.6484078376919253
aF1.5504975160473491
aI2
aI0
aI2
aa(lp35
F2.7669464419658656
aF2.7105850103756275
aF2.8906296460941614
aF1.9384395476243665
aF2.6722173716432356
aF0.46277794066203159
aF0.61857251843436267
aF-0.39161028380372881
aF0.53683676651473577
aF0.077573460306144315
aF0.88380089642635706
aF1.3795000005835236
aF2.8532906874742223
aF2.8852371544997357
aF0.91967958469992461
aF1.2082652201756658
aF1.4724108093445447
aI1
aI3
aI4
aa(lp36
F3.6930982310441132
aF1.5074776022927905
aF4.3340050326764192
aF3.9224928128134642
aF3.8382265872958321
aF0.072341995157421568
aF0.21312301017972324
aF0.27865797762508215
aF-0.21630399053772686
aF0.23042631569922234
aF0.50471811620656748
aF2.3140031665136358
aF2.1729521105082221
aF2.2936322843590915
aF1.0983352844823424
aF1.0742301978794104
aF0.94512414184615612
aI1
aI2
aI4
aa(lp37
F4.6072846272999577
aF4.8523515584459016
aF3.7857862859908966
aF2.349129499581851
aF2.1909375953089447
aF-0.15603437763198347
aF0.50664549866433672
aF-0.039666888697586944
aF-0.36695874988054072
aF-0.60503191878584262
aF0.98939170977825097
aF1.7024474550243798
aF2.4540414690401464
aF1.3158744244635401
aF1.2490136681328394
aF0.5780369785966577
aF1.1232599798338874
aI3
aI1
aI2
aaa(lp38
F-0.017549335174317088
aF-0.032654905379888077
aF0.017498073393459712
aF-0.019673145323132718
aF-0.17083494611981145
aF-0.13953118110571017
aF0.16577524614283717
aF-0.17016055047479151
aF-0.070221020618471269
aF0.087026247570165749
aF-0.23546741730414944
aF-0.19644745083914578
aF0.3299208541309343
aF-0.012948554862883377
aF0.27887257891475081
aF0.28863509258311493
aF-0.073269325079238667
aF0.16848314351671434
aF0.29895794232568962
aF0.37278216856929347
aF0.53207748368436059
aF0.096518287875749675
aF0.5360703660616476
aF0.15948186745506154
aF0.16971301944959738
aF-0.33022340456176269
aF-0.078845095605481363
aF0.75890284316587475
aF-0.31365907317552505
aF0.32401909016734443
aF0.69972613972946107
aF-0.014102591821430366
aF0.15589901907437154
aF-0.066780879884213773
aF-0.26898664030364206
aF-0.50659743281829361
aF0.96417017985596942
aF-0.45120709215348043
aF-0.16400604752255687
aF-1.0671444619635517
aF-0.4443243861485191
aF-0.75413155148910782
aF0.65120691043439805
aF-1.1177116990201554
aF0.14382017703397976
aF-0.9639608251111782
aF0.021169542651722217
aF-0.55346054026707636
aF-0.43455702554427345
aF-0.075588555679349856
aF0.62476686156660155
aF1.2934938325455925
aF1.129872812134747
aF0.023726102513180525
aF-0.63698476758303502
aF0.94991458014271579
aF-1.2792262612091438
aF-1.2708292399783674
aF-0.57947462774794178
aF0.80117699705230816
aa.