(lp1
(dp2
S'mutation rate'
p3
F0.050000000000000003
sS'cam speed'
p4
I2
sS'scale'
p5
F10
sS'stale min speed'
p6
F2
sS'width'
p7
I50
sS'keep elite'
p8
I2
sS'zoom bound'
p9
I20
sS'vertices'
p10
I5
sS'stale frames'
p11
I100
sS'gravity'
p12
I200
sS'height'
p13
I30
sS'spawn x'
p14
I15
sS'crossover rate'
p15
F0.59999999999999998
sS'population size'
p16
I10
sS'zoom factor'
p17
F1.1000000000000001
sS'ground pieces'
p18
I60
sS'max fps'
p19
I100
sS'wheels'
p20
I3
sS'spawn y'
p21
I25
sa(dp22
S'disp help'
p23
I01
sS'disp sim data'
p24
I01
sS'disp settings'
p25
I00
sS'disp car data'
p26
I01
sa(lp27
(lp28
F3.0596809377324132
aF1.5074776022927905
aF4.4482384496309262
aF2.020561695056553
aF4.390556513970739
aF-0.61355526017894557
aF-0.13971220590023725
aF0.33325762665398506
aF-0.21630399053772686
aF0.14926174087576938
aF0.50471811620656748
aF2.8027646739279355
aF2.1729521105082221
aF2.0240807380255887
aF1.722490350298884
aF1.0742301978794104
aF1.5504975160473491
aI2
aI0
aI2
aa(lp29
F3.0596809377324132
aF1.5074776022927905
aF3.6842634330745159
aF2.2521028022982188
aF4.390556513970739
aF-0.61355526017894557
aF-0.13971220590023725
aF0.33325762665398506
aF-0.21630399053772686
aF0.23042631569922234
aF0.50471811620656748
aF2.8027646739279355
aF2.1729521105082221
aF2.0240807380255887
aF1.722490350298884
aF1.6484078376919253
aF1.5504975160473491
aI2
aI0
aI4
aa(lp30
F3.0596809377324132
aF1.8519983686066435
aF3.6842634330745159
aF2.2521028022982188
aF4.390556513970739
aF-0.61355526017894557
aF-0.13971220590023725
aF0.33325762665398506
aF0.41357105482110446
aF0.14926174087576938
aF1.6613563494267929
aF2.8027646739279355
aF1.9904595020869067
aF1.0602099655128678
aF1.722490350298884
aF1.0742301978794104
aF1.5504975160473491
aI2
aI0
aI2
aa(lp31
F3.0596809377324132
aF1.8519983686066435
aF3.6842634330745159
aF2.2521028022982188
aF3.8382265872958321
aF-0.61355526017894557
aF-0.13971220590023725
aF0.33325762665398506
aF0.41357105482110446
aF0.28170640393249879
aF1.9986693714206696
aF2.8027646739279355
aF1.9904595020869067
aF2.0240807380255887
aF1.722490350298884
aF1.6484078376919253
aF0.94512414184615612
aI2
aI0
aI2
aa(lp32
F3.0596809377324132
aF1.8519983686066435
aF3.6842634330745159
aF2.020561695056553
aF4.390556513970739
aF-0.61355526017894557
aF-0.13971220590023725
aF0.33325762665398506
aF0.41357105482110446
aF0.14926174087576938
aF1.6613563494267929
aF2.8027646739279355
aF1.9904595020869067
aF2.2936322843590915
aF1.722490350298884
aF1.6484078376919253
aF1.3531557794757432
aI2
aI0
aI2
aa(lp33
F3.7040038472224937
aF1.8519983686066435
aF3.6842634330745159
aF2.2521028022982188
aF3.8382265872958321
aF-0.61355526017894557
aF-0.13971220590023725
aF-0.060572048939553258
aF0.41357105482110446
aF0.14926174087576938
aF1.9986693714206696
aF2.8027646739279355
aF1.9904595020869067
aF2.2936322843590915
aF1.722490350298884
aF1.0742301978794104
aF1.5504975160473491
aI2
aI0
aI2
aa(lp34
F2.765921287221162
aF1.5074776022927905
aF3.6842634330745159
aF2.2521028022982188
aF4.390556513970739
aF-0.61355526017894557
aF-0.13971220590023725
aF0.33325762665398506
aF-0.21630399053772686
aF0.23042631569922234
aF1.9986693714206696
aF2.8027646739279355
aF2.1729521105082221
aF2.2936322843590915
aF1.722490350298884
aF1.0742301978794104
aF1.5504975160473491
aI2
aI0
aI4
aa(lp35
F3.0596809377324132
aF1.8519983686066435
aF3.6842634330745159
aF2.2521028022982188
aF4.390556513970739
aF-0.14116761648798287
aF-0.13971220590023725
aF0.33325762665398506
aF0.28024161694298622
aF0.14926174087576938
aF0.50471811620656748
aF2.8027646739279355
aF2.6857979487419694
aF2.0240807380255887
aF1.722490350298884
aF1.6484078376919253
aF1.5504975160473491
aI2
aI0
aI2
aa(lp36
F3.0596809377324132
aF4.4674871481913483
aF3.6842634330745159
aF2.2521028022982188
aF4.390556513970739
aF-0.61355526017894557
aF-0.13971220590023725
aF0.33325762665398506
aF0.41357105482110446
aF0.14926174087576938
aF0.50471811620656748
aF2.8027646739279355
aF1.9904595020869067
aF2.0240807380255887
aF1.722490350298884
aF1.6484078376919253
aF0.94512414184615612
aI2
aI0
aI4
aa(lp37
F3.0596809377324132
aF1.8519983686066435
aF3.6842634330745159
aF3.4893057352814614
aF3.8382265872958321
aF-0.61355526017894557
aF-0.13971220590023725
aF0.33325762665398506
aF-0.21630399053772686
aF0.23042631569922234
aF1.6613563494267929
aF2.8027646739279355
aF2.1729521105082221
aF2.0240807380255887
aF1.722490350298884
aF1.6484078376919253
aF1.5504975160473491
aI2
aI0
aI2
aaa(lp38
F-0.017549335174317088
aF-0.032654905379888077
aF0.017498073393459712
aF-0.019673145323132718
aF-0.17083494611981145
aF-0.13953118110571017
aF0.16577524614283717
aF-0.17016055047479151
aF-0.070221020618471269
aF0.087026247570165749
aF-0.23546741730414944
aF-0.19644745083914578
aF0.3299208541309343
aF-0.012948554862883377
aF0.27887257891475081
aF0.28863509258311493
aF-0.073269325079238667
aF0.16848314351671434
aF0.29895794232568962
aF0.37278216856929347
aF0.53207748368436059
aF0.096518287875749675
aF0.5360703660616476
aF0.15948186745506154
aF0.16971301944959738
aF-0.33022340456176269
aF-0.078845095605481363
aF0.75890284316587475
aF-0.31365907317552505
aF0.32401909016734443
aF0.69972613972946107
aF-0.014102591821430366
aF0.15589901907437154
aF-0.066780879884213773
aF-0.26898664030364206
aF-0.50659743281829361
aF0.96417017985596942
aF-0.45120709215348043
aF-0.16400604752255687
aF-1.0671444619635517
aF-0.4443243861485191
aF-0.75413155148910782
aF0.65120691043439805
aF-1.1177116990201554
aF0.14382017703397976
aF-0.9639608251111782
aF0.021169542651722217
aF-0.55346054026707636
aF-0.43455702554427345
aF-0.075588555679349856
aF0.62476686156660155
aF1.2934938325455925
aF1.129872812134747
aF0.023726102513180525
aF-0.63698476758303502
aF0.94991458014271579
aF-1.2792262612091438
aF-1.2708292399783674
aF-0.57947462774794178
aF0.80117699705230816
aa.