(lp1
(dp2
S'mutation rate'
p3
F0.050000000000000003
sS'cam speed'
p4
I2
sS'scale'
p5
F10
sS'stale min speed'
p6
F2
sS'width'
p7
I50
sS'keep elite'
p8
I3
sS'zoom bound'
p9
I20
sS'vertices'
p10
I5
sS'stale frames'
p11
I100
sS'gravity'
p12
I100
sS'height'
p13
I30
sS'spawn x'
p14
I15
sS'crossover rate'
p15
F0.59999999999999998
sS'population size'
p16
I20
sS'zoom factor'
p17
F1.1000000000000001
sS'ground pieces'
p18
I70
sS'max fps'
p19
I100
sS'wheels'
p20
I3
sS'spawn y'
p21
I25
sa(dp22
S'disp help'
p23
I00
sS'disp sim data'
p24
I01
sS'disp settings'
p25
I00
sS'disp car data'
p26
I01
sa(lp27
(lp28
F3.2707276366077171
aF1.641018726780517
aF2.9112619073671473
aF3.8290422717241066
aF3.7863945735738795
aF0.2948161411982938
aF-0.36631721746108653
aF0.41645589764353619
aF-0.064997173171258638
aF-0.1703842756217171
aF0.92587904213570338
aF1.818268563440566
aF2.8892799570450407
aF1.1766496786321663
aF1.00988278759168
aF1.9862816614825545
aF1.6050390325192128
aI0
aI3
aI1
aa(lp29
F1.5271149677566842
aF1.5332658403276462
aF2.2455474066267809
aF4.2180338573518865
aF2.202877126154378
aF-0.55579991815100571
aF0.1185242906322288
aF0.26521044555441942
aF-0.41410016036457464
aF-0.39549512744813142
aF1.8510886984893267
aF1.8342163545613692
aF2.1556972014823552
aF2.7890983543914167
aF0.81325555575792374
aF1.4465223438640376
aF1.9950224771764744
aI2
aI0
aI3
aa(lp30
F1.8748669295237641
aF2.2164521289391241
aF3.6343674960542058
aF1.4509605833221135
aF3.5938566784977239
aF0.019935707402960134
aF-0.14245990634739392
aF-0.39840985476381352
aF0.21929375461432432
aF0.54995939177058828
aF1.9275375140252091
aF2.424336158968611
aF2.3154462044926341
aF2.0331540481094499
aF1.953236823745985
aF1.6369193762233842
aF0.66009323769797268
aI4
aI0
aI2
aa(lp31
F2.242895986030474
aF1.5332658403276462
aF2.2455474066267809
aF4.2180338573518865
aF2.202877126154378
aF0.56132730934141262
aF0.26429631674947318
aF0.26521044555441942
aF0.60972153162745535
aF0.54818524936901425
aF1.8510886984893267
aF2.5883588121780856
aF2.1556972014823552
aF2.7890983543914167
aF1.9094400088393608
aF0.80091340178072357
aF1.3484208085512521
aI4
aI0
aI0
aa(lp32
F1.5271149677566842
aF4.0569642020142052
aF1.0972524928629905
aF4.712209194549442
aF4.4689564018861052
aF-0.55579991815100571
aF0.1185242906322288
aF-0.079060943270388484
aF-0.41410016036457464
aF-0.39549512744813142
aF0.92812691046800011
aF2.6103245674758386
aF2.9616127058139345
aF2.9771261098760551
aF0.81325555575792374
aF1.4465223438640376
aF1.9950224771764744
aI2
aI3
aI3
aa(lp33
F1.383717217171565
aF4.0569642020142052
aF1.6905162934103157
aF3.3905659368211438
aF4.4689564018861052
aF-0.32743070892226944
aF0.26429631674947318
aF-0.079060943270388484
aF0.60972153162745535
aF-0.62528857226776058
aF0.92812691046800011
aF2.5883588121780856
aF2.9616127058139345
aF2.6610637619820934
aF1.9094400088393608
aF0.80091340178072357
aF0.81177413168582624
aI4
aI3
aI0
aa(lp34
F2.242895986030474
aF4.9568431396751524
aF1.0972524928629905
aF4.712209194549442
aF3.3562294120040024
aF0.56132730934141262
aF0.4001428630513586
aF-0.0082733868708905201
aF-0.45295861283815492
aF0.54818524936901425
aF1.8414953940117837
aF1.0605837468849979
aF2.3735706187196777
aF2.9771261098760551
aF1.761932569967017
aF0.69752234830594273
aF0.53557112500615012
aI4
aI1
aI2
aa(lp35
F1.383717217171565
aF4.9568431396751524
aF1.6905162934103157
aF1.4509605833221135
aF3.5938566784977239
aF0.019935707402960134
aF-0.14245990634739392
aF-0.39840985476381352
aF-0.45295861283815492
aF0.54995939177058828
aF1.8414953940117837
aF2.333962322850395
aF2.3154462044926341
aF2.0331540481094499
aF1.761932569967017
aF1.6369193762233842
aF0.66009323769797268
aI4
aI1
aI2
aa(lp36
F1.8748669295237641
aF2.2164521289391241
aF3.6343674960542058
aF3.3905659368211438
aF3.3562294120040024
aF-0.32743070892226944
aF0.4001428630513586
aF-0.0082733868708905201
aF0.21929375461432432
aF-0.62528857226776058
aF1.9275375140252091
aF2.424336158968611
aF2.3735706187196777
aF2.6610637619820934
aF1.953236823745985
aF0.69752234830594273
aF0.81177413168582624
aI4
aI0
aI2
aa(lp37
F3.2707276366077171
aF4.4854339238038836
aF2.9112619073671473
aF3.8290422717241066
aF2.0495529724104022
aF0.32602135752325745
aF0.24019787954620353
aF0.41645589764353619
aF-0.32164000885573762
aF-0.46366040689522481
aF1.7748619427013763
aF1.4226664404004792
aF1.7837924436003554
aF2.3906019425170815
aF0.66134638982281702
aF0.62443677111149754
aF1.0011415316617498
aI2
aI3
aI0
aa(lp38
F2.5340280589322859
aF1.641018726780517
aF4.9522787290782437
aF1.7788652090619705
aF3.7863945735738795
aF0.2948161411982938
aF-0.36631721746108653
aF0.40722778130589932
aF-0.064997173171258638
aF-0.1703842756217171
aF0.92587904213570338
aF1.818268563440566
aF2.8892799570450407
aF1.1766496786321663
aF1.00988278759168
aF1.9862816614825545
aF1.6050390325192128
aI0
aI1
aI1
aa(lp39
F4.6542302520825318
aF1.3043165148532307
aF3.6343674960542058
aF2.1945080185007471
aF1.2995388002947266
aF0.019935707402960134
aF0.52974411476630467
aF-0.54452449430079042
aF-0.35286512563439998
aF0.16244845499005645
aF1.9275375140252091
aF1.9191972555577275
aF2.5354022396365807
aF2.8274332156640876
aF1.3929677045283522
aF1.6369193762233842
aF0.66009323769797268
aI3
aI4
aI2
aa(lp40
F1.8748669295237641
aF2.2164521289391241
aF1.9915559201617645
aF1.4509605833221135
aF3.5938566784977239
aF-0.52622855444367356
aF-0.14245990634739392
aF-0.39840985476381352
aF0.21929375461432432
aF0.54995939177058828
aF1.8314117386614295
aF2.424336158968611
aF2.3154462044926341
aF2.0331540481094499
aF1.953236823745985
aF1.3185661636908457
aF1.811714076603804
aI4
aI0
aI1
aa(lp41
F1.7280000628964447
aF2.4411229368076905
aF3.9979985253002996
aF4.4886359362836714
aF3.6653685160389338
aF-0.071986115170179832
aF0.20519479041387234
aF-0.33520256796843845
aF0.35076019105257039
aF0.33416397233935524
aF0.71805813256067652
aF2.6384026490670411
aF2.6718994733193382
aF2.2164609301805376
aF0.88471375376105399
aF1.873762817161283
aF1.2409781258815675
aI2
aI3
aI2
aa(lp42
F2.2564484851941824
aF1.619768539404467
aF2.3254328088511897
aF1.6571816061035629
aF3.5816167385364133
aF-0.1966883543185145
aF-0.093413396154581441
aF-0.28282603775202791
aF-0.1861702358996864
aF-0.29047437943136117
aF1.4627153475821895
aF1.5188435962222984
aF2.5058982236353264
aF1.205329094693768
aF1.558949277159094
aF1.6544045021525609
aF0.58474479755586062
aI0
aI2
aI1
aa(lp43
F4.8962121144173949
aF2.2623080589845137
aF2.4620224644343978
aF3.7830050551196215
aF2.5222122901462187
aF0.36686703428102152
aF-0.14245990634739392
aF-0.22206020167145518
aF0.21929375461432432
aF-0.028851773385951796
aF0.797510021877325
aF2.5979490098626985
aF1.3101553815230178
aF1.4127664521913506
aF1.3004957599023859
aF0.91011234380362038
aF0.86170252249360435
aI1
aI1
aI0
aa(lp44
F1.8748669295237641
aF2.2164521289391241
aF3.6343674960542058
aF1.4509605833221135
aF3.5938566784977239
aF0.019935707402960134
aF-0.12298919188282564
aF-0.39840985476381352
aF0.18535257586502962
aF0.54995939177058828
aF1.9275375140252091
aF2.424336158968611
aF2.3154462044926341
aF2.0331540481094499
aF1.953236823745985
aF1.6369193762233842
aF0.66009323769797268
aI2
aI0
aI2
aa(lp45
F3.2707276366077171
aF1.641018726780517
aF2.9112619073671473
aF3.8290422717241066
aF3.7863945735738795
aF0.2948161411982938
aF-0.36631721746108653
aF0.41645589764353619
aF-0.41410016036457464
aF-0.39549512744813142
aF0.92587904213570338
aF1.818268563440566
aF2.1556972014823552
aF1.1766496786321663
aF0.81325555575792374
aF1.4465223438640376
aF1.6050390325192128
aI2
aI3
aI1
aa(lp46
F2.2564484851941824
aF1.619768539404467
aF4.5656405549692494
aF1.6571816061035629
aF3.6653685160389338
aF0.29747159873957085
aF0.23181064982181854
aF-0.28282603775202791
aF-0.1861702358996864
aF0.019657106549434311
aF0.5902384856074101
aF2.6384026490670411
aF2.5058982236353264
aF1.4579856990152968
aF1.138573044571741
aF1.2749275214330642
aF0.58474479755586062
aI4
aI1
aI4
aa(lp47
F1.6054483748723274
aF3.0431285764069202
aF2.3254328088511897
aF1.775561428163698
aF2.5073930872073218
aF-0.071986115170179832
aF-0.093413396154581441
aF0.025859045736360775
aF-0.12250563009028959
aF0.33416397233935524
aF1.4627153475821895
aF1.6599291620987116
aF2.7474635437967034
aF1.205329094693768
aF0.88471375376105399
aF1.6544045021525609
aF1.8116116391442045
aI3
aI0
aI2
aaa(lp48
F0.085938926247886516
aF-0.018165512468977768
aF0.0075010310993506302
aF-0.13619492184596474
aF-0.015792363139123605
aF-0.066093466082938118
aF-0.098586836181909276
aF-0.18698152186932757
aF-0.20256858596958507
aF-0.19265831702466979
aF0.32255269154734023
aF-0.33279323661691163
aF-0.33820238383724099
aF-0.074586494981099205
aF-0.18064260355634321
aF-0.02658279685421655
aF-0.39582929774034714
aF0.20503163546601089
aF-0.43996575626787959
aF0.37571547340794476
aF0.57796953521105665
aF0.46347654796677507
aF0.094267027603186282
aF-0.63099800266286532
aF-0.042503946191603692
aF0.29957537417521485
aF0.039489850665819448
aF-0.47434682292498981
aF0.36780594806412137
aF-0.68637556475296035
aF0.8281513300153559
aF0.1598187445351944
aF-0.42380808405627884
aF0.059283270592394799
aF-0.043937559349187749
aF-0.50937775093221593
aF0.45294086562450642
aF0.52014339929182296
aF0.3069152040957619
aF0.3832367224576867
aF0.19113112747147287
aF0.91523298503593042
aF-0.82523669676846834
aF-0.025196556151929395
aF0.15248290107559237
aF0.28481443738381507
aF-0.3254132727839788
aF-0.12481448571331732
aF-1.1070636949723758
aF0.39782546905637162
aF-0.30892280157087093
aF0.47243675913438432
aF-0.075845078498626206
aF-0.46145682270963928
aF1.2655528194772847
aF-0.29726961488231951
aF0.43708167806292031
aF0.14785973766886573
aF1.0544482439171987
aF1.5558286179613514
aF0.23721439905933717
aF0.20363346204770472
aF-1.2147028682394116
aF-0.99011261074769019
aF0.086122593195556929
aF-0.39474290570326542
aF-1.195594830707696
aF-1.5341631987657531
aF1.1245901484397733
aF-0.35202624665258919
aa.