(lp1
(dp2
S'mutation rate'
p3
F0.050000000000000003
sS'cam speed'
p4
I2
sS'scale'
p5
F10
sS'stale min speed'
p6
F2
sS'width'
p7
I50
sS'keep elite'
p8
I3
sS'zoom bound'
p9
I20
sS'vertices'
p10
I5
sS'stale frames'
p11
I100
sS'gravity'
p12
I100
sS'height'
p13
I30
sS'spawn x'
p14
I15
sS'crossover rate'
p15
F0.59999999999999998
sS'population size'
p16
I20
sS'zoom factor'
p17
F1.1000000000000001
sS'ground pieces'
p18
I70
sS'max fps'
p19
I100
sS'wheels'
p20
I3
sS'spawn y'
p21
I25
sa(dp22
S'disp help'
p23
I00
sS'disp sim data'
p24
I01
sS'disp settings'
p25
I00
sS'disp car data'
p26
I01
sa(lp27
(lp28
F1.1583718078433796
aF1.0394583015092138
aF4.6405661639967377
aF1.3239540049511209
aF1.8937316374734654
aF-0.44452954228330721
aF0.58367033362239074
aF-0.58662300723408844
aF0.62250734410311881
aF0.61113733822247074
aF1.6655717055068013
aF1.9612555818496327
aF1.7248398714018778
aF1.0371071957017932
aF1.4090692565645901
aF1.8389762479927003
aF0.51288698831773227
aI4
aI0
aI2
aa(lp29
F1.1583718078433796
aF1.0394583015092138
aF4.6405661639967377
aF1.3239540049511209
aF1.8937316374734654
aF-0.44452954228330721
aF0.58367033362239074
aF-0.58662300723408844
aF0.62250734410311881
aF0.61113733822247074
aF1.6655717055068013
aF1.9612555818496327
aF1.7248398714018778
aF1.0371071957017932
aF1.4090692565645901
aF1.8389762479927003
aF0.51288698831773227
aI4
aI0
aI2
aa(lp30
F1.1583718078433796
aF1.0394583015092138
aF4.6405661639967377
aF1.3239540049511209
aF1.8937316374734654
aF-0.44452954228330721
aF0.58367033362239074
aF-0.58662300723408844
aF0.62250734410311881
aF0.61113733822247074
aF1.6655717055068013
aF1.9612555818496327
aF1.7248398714018778
aF1.0371071957017932
aF1.4090692565645901
aF1.8389762479927003
aF0.51288698831773227
aI4
aI0
aI2
aa(lp31
F1.1583718078433796
aF1.0394583015092138
aF4.6405661639967377
aF1.1712367993845785
aF2.8018958899646238
aF-0.44452954228330721
aF0.58367033362239074
aF-0.58662300723408844
aF0.62250734410311881
aF0.49179186494633953
aF1.6655717055068013
aF1.9612555818496327
aF1.7248398714018778
aF1.0371071957017932
aF1.4090692565645901
aF1.8389762479927003
aF0.51288698831773227
aI4
aI0
aI2
aa(lp32
F1.1583718078433796
aF3.5345278643639078
aF4.6405661639967377
aF1.3239540049511209
aF1.8937316374734654
aF-0.44452954228330721
aF0.58367033362239074
aF-0.58662300723408844
aF0.62250734410311881
aF0.61113733822247074
aF1.6655717055068013
aF1.9612555818496327
aF1.7248398714018778
aF1.0371071957017932
aF1.4090692565645901
aF1.8389762479927003
aF0.51288698831773227
aI4
aI0
aI2
aa(lp33
F1.1583718078433796
aF1.0394583015092138
aF4.6405661639967377
aF1.3239540049511209
aF1.8937316374734654
aF-0.44452954228330721
aF0.44363000313359224
aF0.34842036045845892
aF0.62250734410311881
aF0.61113733822247074
aF1.6655717055068013
aF1.9612555818496327
aF1.7248398714018778
aF1.0371071957017932
aF1.7274230735168541
aF1.8389762479927003
aF0.51288698831773227
aI4
aI0
aI2
aa(lp34
F1.1583718078433796
aF1.0394583015092138
aF4.6405661639967377
aF1.3239540049511209
aF1.8937316374734654
aF-0.44452954228330721
aF-0.61525645855335442
aF-0.58662300723408844
aF0.62250734410311881
aF0.61113733822247074
aF1.6655717055068013
aF1.9612555818496327
aF1.7248398714018778
aF1.0371071957017932
aF1.4090692565645901
aF1.8389762479927003
aF0.51288698831773227
aI4
aI0
aI2
aa(lp35
F1.1583718078433796
aF1.0394583015092138
aF4.6405661639967377
aF1.3239540049511209
aF1.8937316374734654
aF-0.44452954228330721
aF-0.2166806099906291
aF-0.58662300723408844
aF0.62250734410311881
aF0.61113733822247074
aF1.6655717055068013
aF1.9612555818496327
aF1.7248398714018778
aF1.0371071957017932
aF0.94923573308209641
aF1.8389762479927003
aF0.51288698831773227
aI4
aI0
aI3
aa(lp36
F1.1583718078433796
aF1.0394583015092138
aF4.6405661639967377
aF1.3239540049511209
aF1.8937316374734654
aF-0.44452954228330721
aF0.58367033362239074
aF-0.58662300723408844
aF0.62250734410311881
aF0.61113733822247074
aF1.6655717055068013
aF2.5501949085461346
aF1.7248398714018778
aF1.0371071957017932
aF1.1926344645415365
aF1.8389762479927003
aF0.51288698831773227
aI4
aI0
aI2
aa(lp37
F1.1583718078433796
aF3.5345278643639078
aF4.6405661639967377
aF1.3239540049511209
aF1.8937316374734654
aF-0.44452954228330721
aF0.58367033362239074
aF-0.58662300723408844
aF0.62250734410311881
aF0.61113733822247074
aF1.6655717055068013
aF1.78600834543914
aF1.7248398714018778
aF1.0371071957017932
aF0.95372564471054644
aF1.8389762479927003
aF1.9209161766751388
aI4
aI0
aI2
aa(lp38
F1.1583718078433796
aF1.0394583015092138
aF4.6405661639967377
aF1.1712367993845785
aF1.8937316374734654
aF-0.44452954228330721
aF0.44363000313359224
aF-0.58662300723408844
aF0.62250734410311881
aF0.61113733822247074
aF1.6655717055068013
aF1.9612555818496327
aF1.7248398714018778
aF1.0371071957017932
aF1.4090692565645901
aF1.8389762479927003
aF0.51288698831773227
aI4
aI0
aI2
aa(lp39
F1.1583718078433796
aF1.0394583015092138
aF4.6405661639967377
aF1.3239540049511209
aF1.8937316374734654
aF-0.44452954228330721
aF0.58367033362239074
aF-0.58662300723408844
aF0.62250734410311881
aF0.61113733822247074
aF1.6655717055068013
aF1.7547519515003736
aF1.7248398714018778
aF1.0371071957017932
aF1.4090692565645901
aF1.8389762479927003
aF0.51288698831773227
aI4
aI0
aI2
aa(lp40
F1.1583718078433796
aF1.0394583015092138
aF4.6405661639967377
aF1.3239540049511209
aF1.8937316374734654
aF-0.44452954228330721
aF0.58367033362239074
aF-0.58662300723408844
aF0.62250734410311881
aF0.61113733822247074
aF1.6655717055068013
aF1.9612555818496327
aF1.7248398714018778
aF1.0371071957017932
aF1.4090692565645901
aF1.8389762479927003
aF0.51288698831773227
aI4
aI0
aI2
aa(lp41
F1.1583718078433796
aF1.0394583015092138
aF4.6405661639967377
aF1.3239540049511209
aF1.8937316374734654
aF-0.44452954228330721
aF0.58367033362239074
aF-0.59956786307510712
aF0.62250734410311881
aF0.61113733822247074
aF1.6655717055068013
aF1.9612555818496327
aF2.3737461157394431
aF1.0371071957017932
aF1.4090692565645901
aF1.8389762479927003
aF0.51288698831773227
aI4
aI0
aI2
aa(lp42
F1.1583718078433796
aF1.0394583015092138
aF4.6405661639967377
aF1.3239540049511209
aF1.8937316374734654
aF-0.44452954228330721
aF0.58367033362239074
aF-0.58662300723408844
aF0.62250734410311881
aF0.61113733822247074
aF1.6655717055068013
aF1.9612555818496327
aF2.7460238859739281
aF1.0371071957017932
aF0.94923573308209641
aF1.8389762479927003
aF0.51288698831773227
aI4
aI1
aI2
aa(lp43
F1.1583718078433796
aF1.0394583015092138
aF4.6405661639967377
aF1.3239540049511209
aF1.8937316374734654
aF-0.44452954228330721
aF0.58367033362239074
aF-0.58662300723408844
aF0.62250734410311881
aF0.48713833926485184
aF1.6655717055068013
aF1.9612555818496327
aF1.7248398714018778
aF1.0371071957017932
aF1.4090692565645901
aF1.8389762479927003
aF0.51288698831773227
aI4
aI0
aI2
aa(lp44
F1.1583718078433796
aF1.0394583015092138
aF4.6405661639967377
aF1.3239540049511209
aF1.8937316374734654
aF-0.44452954228330721
aF0.58367033362239074
aF-0.58662300723408844
aF0.62250734410311881
aF0.61113733822247074
aF1.6655717055068013
aF1.9612555818496327
aF1.7248398714018778
aF1.0371071957017932
aF1.4090692565645901
aF1.8389762479927003
aF0.51288698831773227
aI4
aI0
aI2
aa(lp45
F1.1583718078433796
aF1.0394583015092138
aF4.6405661639967377
aF1.3239540049511209
aF1.8937316374734654
aF-0.44452954228330721
aF0.58367033362239074
aF-0.58662300723408844
aF0.62250734410311881
aF0.61113733822247074
aF1.6655717055068013
aF1.9612555818496327
aF1.7248398714018778
aF1.0371071957017932
aF1.4090692565645901
aF1.8389762479927003
aF0.51288698831773227
aI4
aI0
aI2
aa(lp46
F1.1583718078433796
aF1.0394583015092138
aF4.6405661639967377
aF1.3239540049511209
aF1.8937316374734654
aF-0.52464330999596098
aF0.58367033362239074
aF-0.58662300723408844
aF0.62250734410311881
aF0.61113733822247074
aF1.6655717055068013
aF1.9612555818496327
aF1.7248398714018778
aF1.0371071957017932
aF1.4090692565645901
aF1.8389762479927003
aF0.51288698831773227
aI4
aI0
aI2
aa(lp47
F1.1583718078433796
aF1.0394583015092138
aF4.6405661639967377
aF1.3239540049511209
aF1.8937316374734654
aF-0.44452954228330721
aF0.44363000313359224
aF-0.58662300723408844
aF0.62250734410311881
aF0.61113733822247074
aF1.6655717055068013
aF1.9612555818496327
aF1.7248398714018778
aF1.0371071957017932
aF1.4090692565645901
aF1.8389762479927003
aF0.51288698831773227
aI4
aI0
aI2
aaa(lp48
F0.085938926247886516
aF-0.018165512468977768
aF0.0075010310993506302
aF-0.13619492184596474
aF-0.015792363139123605
aF-0.066093466082938118
aF-0.098586836181909276
aF-0.18698152186932757
aF-0.20256858596958507
aF-0.19265831702466979
aF0.32255269154734023
aF-0.33279323661691163
aF-0.33820238383724099
aF-0.074586494981099205
aF-0.18064260355634321
aF-0.02658279685421655
aF-0.39582929774034714
aF0.20503163546601089
aF-0.43996575626787959
aF0.37571547340794476
aF0.57796953521105665
aF0.46347654796677507
aF0.094267027603186282
aF-0.63099800266286532
aF-0.042503946191603692
aF0.29957537417521485
aF0.039489850665819448
aF-0.47434682292498981
aF0.36780594806412137
aF-0.68637556475296035
aF0.8281513300153559
aF0.1598187445351944
aF-0.42380808405627884
aF0.059283270592394799
aF-0.043937559349187749
aF-0.50937775093221593
aF0.45294086562450642
aF0.52014339929182296
aF0.3069152040957619
aF0.3832367224576867
aF0.19113112747147287
aF0.91523298503593042
aF-0.82523669676846834
aF-0.025196556151929395
aF0.15248290107559237
aF0.28481443738381507
aF-0.3254132727839788
aF-0.12481448571331732
aF-1.1070636949723758
aF0.39782546905637162
aF-0.30892280157087093
aF0.47243675913438432
aF-0.075845078498626206
aF-0.46145682270963928
aF1.2655528194772847
aF-0.29726961488231951
aF0.43708167806292031
aF0.14785973766886573
aF1.0544482439171987
aF1.5558286179613514
aF0.23721439905933717
aF0.20363346204770472
aF-1.2147028682394116
aF-0.99011261074769019
aF0.086122593195556929
aF-0.39474290570326542
aF-1.195594830707696
aF-1.5341631987657531
aF1.1245901484397733
aF-0.35202624665258919
aa.