(lp1
(dp2
S'mutation rate'
p3
F0.050000000000000003
sS'cam speed'
p4
I2
sS'scale'
p5
F10
sS'stale min speed'
p6
F2
sS'width'
p7
I50
sS'keep elite'
p8
I3
sS'zoom bound'
p9
I20
sS'vertices'
p10
I5
sS'stale frames'
p11
I100
sS'gravity'
p12
I100
sS'height'
p13
I30
sS'spawn x'
p14
I15
sS'crossover rate'
p15
F0.59999999999999998
sS'population size'
p16
I20
sS'zoom factor'
p17
F1.1000000000000001
sS'ground pieces'
p18
I70
sS'max fps'
p19
I100
sS'wheels'
p20
I3
sS'spawn y'
p21
I25
sa(dp22
S'disp help'
p23
I00
sS'disp sim data'
p24
I01
sS'disp settings'
p25
I00
sS'disp car data'
p26
I01
sa(lp27
(lp28
F1.0958781211814506
aF1.3901805385988473
aF4.6586887072839929
aF1.4509605833221135
aF1.755860492144441
aF-0.60734950072468263
aF0.59188286173611804
aF-0.5082341314429818
aF0.50521570091324319
aF0.55150743181192086
aF1.7379457827224418
aF1.9612555818496327
aF1.6229551324122116
aF1.0196060977867631
aF1.7985071569390032
aF0.97935663137406803
aF0.57557464124534374
aI4
aI0
aI2
aa(lp29
F1.0051977582826708
aF2.4608157397013986
aF4.6586887072839929
aF1.4509605833221135
aF1.755860492144441
aF-0.60734950072468263
aF0.59188286173611804
aF-0.49422660811870989
aF0.50521570091324319
aF0.55150743181192086
aF1.7379457827224418
aF1.9612555818496327
aF1.6229551324122116
aF1.0196060977867631
aF1.7985071569390032
aF0.97935663137406803
aF0.57557464124534374
aI4
aI0
aI2
aa(lp30
F1.0958781211814506
aF2.4608157397013986
aF4.6586887072839929
aF1.4509605833221135
aF1.755860492144441
aF-0.60734950072468263
aF0.59188286173611804
aF-0.5082341314429818
aF0.50521570091324319
aF0.56293818552267894
aF1.7379457827224418
aF1.9612555818496327
aF1.6229551324122116
aF1.0196060977867631
aF1.7985071569390032
aF0.74474276568396147
aF0.57557464124534374
aI4
aI0
aI2
aa(lp31
F3.6469170433506024
aF2.8923058390604908
aF4.6586887072839929
aF1.4509605833221135
aF1.755860492144441
aF0.39654293911513538
aF0.59188286173611804
aF-0.5082341314429818
aF0.42705236073004804
aF0.56293818552267894
aF1.7379457827224418
aF1.9612555818496327
aF1.6229551324122116
aF1.0196060977867631
aF0.82037943025207838
aF0.86544563648291395
aF0.57557464124534374
aI4
aI0
aI2
aa(lp32
F1.0958781211814506
aF1.3901805385988473
aF4.6586887072839929
aF2.0268346204097187
aF1.755860492144441
aF-0.60734950072468263
aF0.59188286173611804
aF-0.49422660811870989
aF0.28221234956115937
aF0.56293818552267894
aF1.6557357406865094
aF1.9612555818496327
aF1.0677198750617229
aF1.0196060977867631
aF1.7985071569390032
aF1.5438085833622401
aF0.57557464124534374
aI4
aI0
aI2
aa(lp33
F1.0958781211814506
aF1.3901805385988473
aF4.6586887072839929
aF1.4509605833221135
aF1.755860492144441
aF-0.60734950072468263
aF0.59188286173611804
aF-0.5082341314429818
aF0.46657456703766131
aF0.55150743181192086
aF1.7379457827224418
aF1.9612555818496327
aF1.6229551324122116
aF1.0196060977867631
aF1.7985071569390032
aF0.97935663137406803
aF0.57557464124534374
aI4
aI0
aI2
aa(lp34
F3.6469170433506024
aF1.3901805385988473
aF4.6586887072839929
aF1.4509605833221135
aF1.755860492144441
aF-0.60734950072468263
aF0.59188286173611804
aF-0.5082341314429818
aF0.50521570091324319
aF0.56293818552267894
aF1.7379457827224418
aF1.9612555818496327
aF1.0677198750617229
aF1.0196060977867631
aF1.7985071569390032
aF1.5438085833622401
aF0.57557464124534374
aI4
aI0
aI2
aa(lp35
F1.0958781211814506
aF2.4608157397013986
aF4.6586887072839929
aF1.4509605833221135
aF1.755860492144441
aF-0.60734950072468263
aF0.59188286173611804
aF-0.49422660811870989
aF0.50521570091324319
aF0.56293818552267894
aF1.6557357406865094
aF1.9612555818496327
aF1.6229551324122116
aF1.0196060977867631
aF1.7985071569390032
aF0.86544563648291395
aF0.57557464124534374
aI0
aI0
aI2
aa(lp36
F1.0958781211814506
aF2.4608157397013986
aF4.6586887072839929
aF1.4509605833221135
aF1.755860492144441
aF0.39654293911513538
aF0.59188286173611804
aF-0.5082341314429818
aF0.50521570091324319
aF-0.085997598586708079
aF1.7379457827224418
aF1.9612555818496327
aF1.6229551324122116
aF1.0196060977867631
aF1.3484856380552301
aF0.97935663137406803
aF0.57557464124534374
aI4
aI0
aI2
aa(lp37
F1.0958781211814506
aF2.4608157397013986
aF4.6586887072839929
aF1.4509605833221135
aF1.755860492144441
aF-0.60734950072468263
aF0.59188286173611804
aF-0.5082341314429818
aF0.50521570091324319
aF0.55150743181192086
aF1.3878615524013838
aF1.9612555818496327
aF1.6229551324122116
aF2.4642421694073233
aF1.7985071569390032
aF1.5438085833622401
aF0.57557464124534374
aI4
aI0
aI2
aa(lp38
F1.0051977582826708
aF2.4608157397013986
aF4.6586887072839929
aF1.4509605833221135
aF1.755860492144441
aF-0.60734950072468263
aF0.59188286173611804
aF-0.49422660811870989
aF0.50521570091324319
aF0.56293818552267894
aF1.7379457827224418
aF1.9612555818496327
aF1.6229551324122116
aF1.0196060977867631
aF1.7985071569390032
aF0.97935663137406803
aF0.57557464124534374
aI4
aI0
aI2
aa(lp39
F1.0958781211814506
aF1.3901805385988473
aF4.6586887072839929
aF1.4509605833221135
aF1.755860492144441
aF-0.60734950072468263
aF0.59188286173611804
aF-0.5082341314429818
aF0.50521570091324319
aF0.56293818552267894
aF1.7379457827224418
aF1.9612555818496327
aF1.6229551324122116
aF1.0196060977867631
aF1.7985071569390032
aF0.97935663137406803
aF0.57557464124534374
aI4
aI0
aI2
aa(lp40
F1.0958781211814506
aF2.4608157397013986
aF4.6586887072839929
aF1.4509605833221135
aF1.755860492144441
aF-0.60734950072468263
aF0.59188286173611804
aF-0.5082341314429818
aF0.50521570091324319
aF0.55150743181192086
aF1.7379457827224418
aF1.9612555818496327
aF1.6229551324122116
aF1.0196060977867631
aF1.7985071569390032
aF0.74474276568396147
aF1.996260027223455
aI4
aI0
aI2
aa(lp41
F1.0958781211814506
aF2.4608157397013986
aF4.6586887072839929
aF1.4509605833221135
aF1.755860492144441
aF-0.48554103157722805
aF0.59188286173611804
aF-0.5082341314429818
aF0.50521570091324319
aF0.55150743181192086
aF1.7379457827224418
aF1.9612555818496327
aF2.5910589207259926
aF1.0196060977867631
aF1.3484856380552301
aF0.74474276568396147
aF0.57557464124534374
aI4
aI0
aI2
aa(lp42
F1.0958781211814506
aF1.3901805385988473
aF4.6586887072839929
aF1.4509605833221135
aF1.755860492144441
aF-0.60734950072468263
aF0.59188286173611804
aF-0.41169891988265711
aF0.50521570091324319
aF0.55150743181192086
aF1.1369086581915595
aF1.9612555818496327
aF1.6229551324122116
aF1.8646831917635087
aF1.7985071569390032
aF1.5438085833622401
aF0.57557464124534374
aI4
aI0
aI2
aa(lp43
F1.0958781211814506
aF2.4608157397013986
aF4.6586887072839929
aF1.4509605833221135
aF1.755860492144441
aF-0.60734950072468263
aF0.59188286173611804
aF-0.41169891988265711
aF0.50521570091324319
aF0.56293818552267894
aF1.7379457827224418
aF1.0130379793835593
aF1.6229551324122116
aF1.0196060977867631
aF1.7985071569390032
aF1.5438085833622401
aF0.57557464124534374
aI4
aI0
aI2
aa(lp44
F1.0958781211814506
aF2.4608157397013986
aF4.6586887072839929
aF2.8609593637348603
aF1.755860492144441
aF-0.60734950072468263
aF0.59188286173611804
aF-0.5082341314429818
aF0.50521570091324319
aF0.56293818552267894
aF1.7379457827224418
aF1.9612555818496327
aF1.6229551324122116
aF1.0196060977867631
aF1.7985071569390032
aF0.74474276568396147
aF0.57557464124534374
aI1
aI0
aI2
aa(lp45
F1.0958781211814506
aF1.3901805385988473
aF4.6586887072839929
aF1.4509605833221135
aF1.755860492144441
aF-0.60734950072468263
aF0.59188286173611804
aF-0.49422660811870989
aF0.50521570091324319
aF0.55150743181192086
aF1.7379457827224418
aF1.9612555818496327
aF1.6223917425976864
aF1.0196060977867631
aF1.7985071569390032
aF0.97935663137406803
aF0.57557464124534374
aI4
aI0
aI2
aa(lp46
F3.6469170433506024
aF2.4608157397013986
aF4.6586887072839929
aF1.4509605833221135
aF1.755860492144441
aF-0.60734950072468263
aF0.59188286173611804
aF-0.49422660811870989
aF0.50521570091324319
aF0.56293818552267894
aF1.7379457827224418
aF1.9612555818496327
aF1.0677198750617229
aF1.0196060977867631
aF1.7985071569390032
aF1.5438085833622401
aF0.57557464124534374
aI4
aI0
aI2
aa(lp47
F1.0051977582826708
aF1.3901805385988473
aF4.6586887072839929
aF1.4509605833221135
aF1.755860492144441
aF-0.60734950072468263
aF0.59188286173611804
aF-0.5082341314429818
aF0.50521570091324319
aF0.55150743181192086
aF1.7379457827224418
aF1.9612555818496327
aF1.6229551324122116
aF1.0196060977867631
aF1.1470971189168824
aF0.97935663137406803
aF0.57557464124534374
aI4
aI0
aI2
aaa(lp48
F0.085938926247886516
aF-0.018165512468977768
aF0.0075010310993506302
aF-0.13619492184596474
aF-0.015792363139123605
aF-0.066093466082938118
aF-0.098586836181909276
aF-0.18698152186932757
aF-0.20256858596958507
aF-0.19265831702466979
aF0.32255269154734023
aF-0.33279323661691163
aF-0.33820238383724099
aF-0.074586494981099205
aF-0.18064260355634321
aF-0.02658279685421655
aF-0.39582929774034714
aF0.20503163546601089
aF-0.43996575626787959
aF0.37571547340794476
aF0.57796953521105665
aF0.46347654796677507
aF0.094267027603186282
aF-0.63099800266286532
aF-0.042503946191603692
aF0.29957537417521485
aF0.039489850665819448
aF-0.47434682292498981
aF0.36780594806412137
aF-0.68637556475296035
aF0.8281513300153559
aF0.1598187445351944
aF-0.42380808405627884
aF0.059283270592394799
aF-0.043937559349187749
aF-0.50937775093221593
aF0.45294086562450642
aF0.52014339929182296
aF0.3069152040957619
aF0.3832367224576867
aF0.19113112747147287
aF0.91523298503593042
aF-0.82523669676846834
aF-0.025196556151929395
aF0.15248290107559237
aF0.28481443738381507
aF-0.3254132727839788
aF-0.12481448571331732
aF-1.1070636949723758
aF0.39782546905637162
aF-0.30892280157087093
aF0.47243675913438432
aF-0.075845078498626206
aF-0.46145682270963928
aF1.2655528194772847
aF-0.29726961488231951
aF0.43708167806292031
aF0.14785973766886573
aF1.0544482439171987
aF1.5558286179613514
aF0.23721439905933717
aF0.20363346204770472
aF-1.2147028682394116
aF-0.99011261074769019
aF0.086122593195556929
aF-0.39474290570326542
aF-1.195594830707696
aF-1.5341631987657531
aF1.1245901484397733
aF-0.35202624665258919
aa.