(lp1
(dp2
S'mutation rate'
p3
F0.050000000000000003
sS'cam speed'
p4
I2
sS'scale'
p5
F10
sS'stale min speed'
p6
F2
sS'width'
p7
I50
sS'keep elite'
p8
I3
sS'zoom bound'
p9
I20
sS'vertices'
p10
I5
sS'stale frames'
p11
I100
sS'gravity'
p12
I100
sS'height'
p13
I30
sS'spawn x'
p14
I15
sS'crossover rate'
p15
F0.59999999999999998
sS'population size'
p16
I20
sS'zoom factor'
p17
F1.1000000000000001
sS'ground pieces'
p18
I70
sS'max fps'
p19
I100
sS'wheels'
p20
I3
sS'spawn y'
p21
I25
sa(dp22
S'disp help'
p23
I00
sS'disp sim data'
p24
I01
sS'disp settings'
p25
I00
sS'disp car data'
p26
I01
sa(lp27
(lp28
F1.0958781211814506
aF2.1262764882447036
aF4.6586887072839929
aF1.4509605833221135
aF1.9880144294009194
aF-0.60734950072468263
aF0.59188286173611804
aF-0.57438205479667526
aF0.62250734410311881
aF0.61113733822247074
aF1.227717741080798
aF1.9612555818496327
aF1.6229551324122116
aF1.0764502627357784
aF1.0216063424468644
aF1.6279088553609444
aF0.69717347515915407
aI4
aI4
aI2
aa(lp29
F1.0958781211814506
aF1.4186138452779766
aF4.6586887072839929
aF1.4509605833221135
aF1.9880144294009194
aF-0.60734950072468263
aF0.59188286173611804
aF-0.45741612995098346
aF0.62250734410311881
aF0.61113733822247074
aF1.227717741080798
aF1.9612555818496327
aF2.0570680471066178
aF1.0764502627357784
aF0.65173945733385286
aF1.7250343082558124
aF0.69717347515915407
aI4
aI4
aI2
aa(lp30
F1.0958781211814506
aF1.4186138452779766
aF4.6586887072839929
aF1.4509605833221135
aF1.9880144294009194
aF-0.60734950072468263
aF0.59188286173611804
aF-0.45741612995098346
aF0.62250734410311881
aF0.61113733822247074
aF1.227717741080798
aF1.9612555818496327
aF1.6229551324122116
aF1.0764502627357784
aF1.0216063424468644
aF1.6279088553609444
aF0.69717347515915407
aI4
aI4
aI2
aa(lp31
F1.0958781211814506
aF2.1262764882447036
aF4.6586887072839929
aF1.4509605833221135
aF1.9880144294009194
aF-0.60734950072468263
aF0.59188286173611804
aF-0.45741612995098346
aF0.62250734410311881
aF0.61113733822247074
aF1.227717741080798
aF1.9612555818496327
aF1.6229551324122116
aF1.0764502627357784
aF1.0216063424468644
aF1.6679327313558536
aF0.69717347515915407
aI4
aI4
aI2
aa(lp32
F1.6005241369345762
aF2.1262764882447036
aF4.6586887072839929
aF1.4509605833221135
aF1.9880144294009194
aF-0.60734950072468263
aF0.59188286173611804
aF-0.45741612995098346
aF0.62250734410311881
aF0.61113733822247074
aF1.227717741080798
aF1.9612555818496327
aF1.6229551324122116
aF1.0764502627357784
aF1.0216063424468644
aF1.6279088553609444
aF0.69717347515915407
aI4
aI4
aI2
aa(lp33
F1.0958781211814506
aF2.7849057016270766
aF4.6586887072839929
aF1.4509605833221135
aF1.9880144294009194
aF-0.60734950072468263
aF0.59188286173611804
aF-0.45741612995098346
aF0.62250734410311881
aF0.61113733822247074
aF1.227717741080798
aF2.2203192918432615
aF2.0570680471066178
aF1.0764502627357784
aF1.0216063424468644
aF1.6279088553609444
aF0.69717347515915407
aI4
aI4
aI2
aa(lp34
F1.0958781211814506
aF4.7412541218157767
aF4.6586887072839929
aF1.4509605833221135
aF1.9880144294009194
aF-0.60734950072468263
aF0.59188286173611804
aF-0.45741612995098346
aF0.62250734410311881
aF0.61113733822247074
aF1.227717741080798
aF1.9612555818496327
aF1.6229551324122116
aF1.0764502627357784
aF1.0216063424468644
aF1.6279088553609444
aF0.69717347515915407
aI4
aI4
aI2
aa(lp35
F1.6005241369345762
aF2.1262764882447036
aF4.6586887072839929
aF1.4509605833221135
aF1.9880144294009194
aF-0.60734950072468263
aF0.59188286173611804
aF-0.45741612995098346
aF0.62250734410311881
aF0.61113733822247074
aF1.3563908675697547
aF1.9612555818496327
aF1.6229551324122116
aF1.0764502627357784
aF1.0216063424468644
aF1.6279088553609444
aF0.69717347515915407
aI4
aI4
aI2
aa(lp36
F1.0958781211814506
aF2.1262764882447036
aF4.6586887072839929
aF1.4509605833221135
aF1.9880144294009194
aF-0.60734950072468263
aF-0.48352415621974987
aF-0.45741612995098346
aF0.62250734410311881
aF0.61113733822247074
aF1.227717741080798
aF1.9612555818496327
aF1.6229551324122116
aF1.0764502627357784
aF1.0216063424468644
aF1.6279088553609444
aF0.69717347515915407
aI4
aI2
aI2
aa(lp37
F1.0958781211814506
aF1.4186138452779766
aF4.6586887072839929
aF1.4509605833221135
aF1.9880144294009194
aF-0.60734950072468263
aF0.59188286173611804
aF-0.45741612995098346
aF0.62250734410311881
aF0.61113733822247074
aF1.227717741080798
aF1.9612555818496327
aF1.6229551324122116
aF2.1793773327431372
aF1.0216063424468644
aF1.6279088553609444
aF0.69717347515915407
aI4
aI4
aI2
aa(lp38
F4.8286575647896148
aF1.4186138452779766
aF4.6586887072839929
aF1.4509605833221135
aF1.9880144294009194
aF-0.60734950072468263
aF0.36156796337449293
aF-0.45741612995098346
aF0.62250734410311881
aF0.61113733822247074
aF1.227717741080798
aF1.9612555818496327
aF2.0570680471066178
aF1.0764502627357784
aF0.65173945733385286
aF1.7250343082558124
aF0.69717347515915407
aI4
aI4
aI2
aa(lp39
F1.0958781211814506
aF1.4186138452779766
aF4.6586887072839929
aF1.4509605833221135
aF1.9880144294009194
aF-0.60734950072468263
aF0.59188286173611804
aF-0.45741612995098346
aF0.62250734410311881
aF0.61113733822247074
aF1.227717741080798
aF1.9612555818496327
aF1.8523246900799863
aF1.0764502627357784
aF1.0216063424468644
aF1.6279088553609444
aF0.69717347515915407
aI4
aI4
aI2
aa(lp40
F1.7176761369054119
aF2.1262764882447036
aF4.6586887072839929
aF1.4509605833221135
aF1.9880144294009194
aF-0.60734950072468263
aF0.59188286173611804
aF-0.57438205479667526
aF0.62250734410311881
aF0.61113733822247074
aF1.227717741080798
aF1.9612555818496327
aF1.6229551324122116
aF1.0764502627357784
aF1.0216063424468644
aF1.6279088553609444
aF0.69717347515915407
aI4
aI4
aI4
aa(lp41
F1.0958781211814506
aF2.1262764882447036
aF4.6586887072839929
aF1.4509605833221135
aF1.9880144294009194
aF-0.60734950072468263
aF0.59188286173611804
aF-0.45741612995098346
aF0.62250734410311881
aF0.3651063475391314
aF1.227717741080798
aF2.2496231233101973
aF2.4685696415365355
aF2.5603530707390139
aF1.0216063424468644
aF1.6279088553609444
aF0.69717347515915407
aI4
aI4
aI2
aa(lp42
F1.0958781211814506
aF2.1262764882447036
aF4.6586887072839929
aF4.1871681640260796
aF1.0787020413052186
aF-0.60734950072468263
aF0.59188286173611804
aF-0.57438205479667526
aF0.62250734410311881
aF0.61113733822247074
aF1.227717741080798
aF1.9612555818496327
aF1.6229551324122116
aF1.0764502627357784
aF1.0216063424468644
aF1.6279088553609444
aF0.69717347515915407
aI4
aI4
aI3
aa(lp43
F1.0958781211814506
aF1.4186138452779766
aF3.0153980528652471
aF1.4509605833221135
aF1.9880144294009194
aF-0.60734950072468263
aF0.59188286173611804
aF-0.45741612995098346
aF0.099000908852707847
aF0.61113733822247074
aF1.227717741080798
aF1.9612555818496327
aF2.0570680471066178
aF2.5033241395751622
aF1.0216063424468644
aF1.6279088553609444
aF0.69717347515915407
aI4
aI4
aI2
aa(lp44
F1.0958781211814506
aF1.4186138452779766
aF4.6586887072839929
aF1.4509605833221135
aF1.9880144294009194
aF-0.60734950072468263
aF0.59188286173611804
aF-0.57438205479667526
aF0.62250734410311881
aF0.61113733822247074
aF1.227717741080798
aF1.9612555818496327
aF1.6229551324122116
aF1.0764502627357784
aF1.0216063424468644
aF1.6279088553609444
aF0.69717347515915407
aI4
aI4
aI2
aa(lp45
F1.0958781211814506
aF1.4186138452779766
aF4.6586887072839929
aF1.4509605833221135
aF1.9880144294009194
aF-0.60734950072468263
aF0.27265627179550478
aF-0.45741612995098346
aF0.62250734410311881
aF0.61113733822247074
aF1.227717741080798
aF1.9612555818496327
aF1.6229551324122116
aF1.0764502627357784
aF1.0216063424468644
aF1.6279088553609444
aF0.69717347515915407
aI4
aI1
aI2
aa(lp46
F1.0958781211814506
aF2.1262764882447036
aF4.6586887072839929
aF4.2373764981365882
aF1.9880144294009194
aF0.25542665482518789
aF0.59188286173611804
aF-0.57438205479667526
aF0.62250734410311881
aF0.61113733822247074
aF1.227717741080798
aF1.9612555818496327
aF1.6229551324122116
aF1.0764502627357784
aF1.0216063424468644
aF1.6279088553609444
aF0.69717347515915407
aI4
aI4
aI2
aa(lp47
F1.0958781211814506
aF2.1262764882447036
aF4.6586887072839929
aF1.4509605833221135
aF1.9880144294009194
aF-0.60734950072468263
aF0.59188286173611804
aF-0.45741612995098346
aF0.62250734410311881
aF0.61113733822247074
aF1.227717741080798
aF1.9612555818496327
aF1.6229551324122116
aF1.0764502627357784
aF1.0216063424468644
aF1.6279088553609444
aF0.69717347515915407
aI4
aI4
aI2
aaa(lp48
F0.085938926247886516
aF-0.018165512468977768
aF0.0075010310993506302
aF-0.13619492184596474
aF-0.015792363139123605
aF-0.066093466082938118
aF-0.098586836181909276
aF-0.18698152186932757
aF-0.20256858596958507
aF-0.19265831702466979
aF0.32255269154734023
aF-0.33279323661691163
aF-0.33820238383724099
aF-0.074586494981099205
aF-0.18064260355634321
aF-0.02658279685421655
aF-0.39582929774034714
aF0.20503163546601089
aF-0.43996575626787959
aF0.37571547340794476
aF0.57796953521105665
aF0.46347654796677507
aF0.094267027603186282
aF-0.63099800266286532
aF-0.042503946191603692
aF0.29957537417521485
aF0.039489850665819448
aF-0.47434682292498981
aF0.36780594806412137
aF-0.68637556475296035
aF0.8281513300153559
aF0.1598187445351944
aF-0.42380808405627884
aF0.059283270592394799
aF-0.043937559349187749
aF-0.50937775093221593
aF0.45294086562450642
aF0.52014339929182296
aF0.3069152040957619
aF0.3832367224576867
aF0.19113112747147287
aF0.91523298503593042
aF-0.82523669676846834
aF-0.025196556151929395
aF0.15248290107559237
aF0.28481443738381507
aF-0.3254132727839788
aF-0.12481448571331732
aF-1.1070636949723758
aF0.39782546905637162
aF-0.30892280157087093
aF0.47243675913438432
aF-0.075845078498626206
aF-0.46145682270963928
aF1.2655528194772847
aF-0.29726961488231951
aF0.43708167806292031
aF0.14785973766886573
aF1.0544482439171987
aF1.5558286179613514
aF0.23721439905933717
aF0.20363346204770472
aF-1.2147028682394116
aF-0.99011261074769019
aF0.086122593195556929
aF-0.39474290570326542
aF-1.195594830707696
aF-1.5341631987657531
aF1.1245901484397733
aF-0.35202624665258919
aa.