(lp1
(dp2
S'mutation rate'
p3
F0.050000000000000003
sS'cam speed'
p4
I2
sS'scale'
p5
F10
sS'stale min speed'
p6
F2
sS'width'
p7
I50
sS'keep elite'
p8
I3
sS'zoom bound'
p9
I20
sS'vertices'
p10
I5
sS'stale frames'
p11
I100
sS'gravity'
p12
I100
sS'height'
p13
I30
sS'spawn x'
p14
I15
sS'crossover rate'
p15
F0.59999999999999998
sS'population size'
p16
I20
sS'zoom factor'
p17
F1.1000000000000001
sS'ground pieces'
p18
I70
sS'max fps'
p19
I100
sS'wheels'
p20
I3
sS'spawn y'
p21
I25
sa(dp22
S'disp help'
p23
I00
sS'disp sim data'
p24
I01
sS'disp settings'
p25
I00
sS'disp car data'
p26
I01
sa(lp27
(lp28
F1.0958781211814506
aF1.7590310280996282
aF3.8320226969410607
aF1.3239540049511209
aF2.3397544976560143
aF-0.54243624938847945
aF0.52116128220872593
aF-0.48397314408588599
aF0.62250734410311881
aF0.61113733822247074
aF0.9461941401299867
aF1.9612555818496327
aF1.7409319386236384
aF1.2216345014070016
aF1.3806079641549089
aF1.8324245941273671
aF0.52597551949821308
aI4
aI4
aI2
aa(lp29
F1.0958781211814506
aF1.7590310280996282
aF3.8320226969410607
aF1.3239540049511209
aF2.3397544976560143
aF-0.54243624938847945
aF0.52116128220872593
aF-0.48397314408588599
aF0.62250734410311881
aF0.61113733822247074
aF0.9461941401299867
aF1.9612555818496327
aF1.6229551324122116
aF1.2216345014070016
aF0.83745901167977155
aF1.5975331860575741
aF1.5530516101545229
aI4
aI4
aI2
aa(lp30
F1.0958781211814506
aF1.9891578612661838
aF3.8320226969410607
aF1.3239540049511209
aF2.3397544976560143
aF0.060445472832404756
aF0.52116128220872593
aF-0.48397314408588599
aF0.62250734410311881
aF0.61113733822247074
aF0.9461941401299867
aF1.9612555818496327
aF1.6229551324122116
aF1.2216345014070016
aF0.59996138124837528
aF1.8324245941273671
aF0.51288698831773227
aI4
aI4
aI2
aa(lp31
F1.0958781211814506
aF1.7590310280996282
aF3.8320226969410607
aF1.3239540049511209
aF3.1099138316312906
aF0.060445472832404756
aF0.52116128220872593
aF-0.48397314408588599
aF0.62250734410311881
aF0.61113733822247074
aF0.9461941401299867
aF1.9612555818496327
aF1.6229551324122116
aF1.2216345014070016
aF0.59996138124837528
aF1.8324245941273671
aF0.51288698831773227
aI4
aI4
aI2
aa(lp32
F1.0958781211814506
aF1.9891578612661838
aF3.8320226969410607
aF1.3239540049511209
aF2.3397544976560143
aF-0.54243624938847945
aF0.52116128220872593
aF-0.48397314408588599
aF0.62250734410311881
aF0.61113733822247074
aF0.9461941401299867
aF1.9612555818496327
aF1.6229551324122116
aF1.2216345014070016
aF1.946942895203128
aF1.8324245941273671
aF1.5530516101545229
aI4
aI4
aI2
aa(lp33
F1.0958781211814506
aF1.7590310280996282
aF3.8320226969410607
aF1.3239540049511209
aF2.3397544976560143
aF-0.54243624938847945
aF0.52116128220872593
aF-0.48397314408588599
aF0.62250734410311881
aF0.61113733822247074
aF0.9461941401299867
aF1.9612555818496327
aF1.7409319386236384
aF1.2216345014070016
aF0.83745901167977155
aF1.5171512350402594
aF0.51288698831773227
aI4
aI4
aI2
aa(lp34
F1.0958781211814506
aF1.7590310280996282
aF3.8320226969410607
aF1.3239540049511209
aF2.3397544976560143
aF-0.54243624938847945
aF0.33616016330140175
aF-0.48397314408588599
aF0.62250734410311881
aF0.61113733822247074
aF0.9461941401299867
aF1.9612555818496327
aF1.6229551324122116
aF1.2216345014070016
aF1.3806079641549089
aF1.8324245941273671
aF0.52597551949821308
aI4
aI4
aI2
aa(lp35
F1.0958781211814506
aF1.7590310280996282
aF3.8320226969410607
aF1.3239540049511209
aF1.9219081946906091
aF-0.54243624938847945
aF0.52116128220872593
aF-0.48397314408588599
aF0.62250734410311881
aF0.61113733822247074
aF0.9461941401299867
aF1.9612555818496327
aF2.2020219598068702
aF1.2216345014070016
aF0.83745901167977155
aF1.8324245941273671
aF0.51288698831773227
aI4
aI4
aI2
aa(lp36
F1.0958781211814506
aF1.7590310280996282
aF3.8320226969410607
aF1.3239540049511209
aF2.3397544976560143
aF0.060445472832404756
aF0.33616016330140175
aF-0.48397314408588599
aF0.62250734410311881
aF0.61113733822247074
aF0.9461941401299867
aF1.9612555818496327
aF1.6229551324122116
aF1.2216345014070016
aF0.53548863375498512
aF1.5975331860575741
aF0.51288698831773227
aI4
aI4
aI2
aa(lp37
F1.0958781211814506
aF1.7590310280996282
aF3.8320226969410607
aF1.3239540049511209
aF2.3428258559182438
aF-0.54243624938847945
aF0.52116128220872593
aF-0.48397314408588599
aF0.62250734410311881
aF0.61113733822247074
aF0.9461941401299867
aF1.9612555818496327
aF2.3681357237931548
aF1.2216345014070016
aF0.83745901167977155
aF0.56202640195831965
aF1.8783313946273705
aI4
aI4
aI2
aa(lp38
F1.0958781211814506
aF4.8506176403919516
aF3.8320226969410607
aF1.3239540049511209
aF2.3397544976560143
aF-0.54243624938847945
aF0.52116128220872593
aF-0.48397314408588599
aF0.62250734410311881
aF0.61113733822247074
aF0.9461941401299867
aF1.9612555818496327
aF1.7409319386236384
aF1.2216345014070016
aF0.83745901167977155
aF1.5975331860575741
aF0.51288698831773227
aI3
aI4
aI2
aa(lp39
F1.0958781211814506
aF1.7590310280996282
aF3.8320226969410607
aF1.3239540049511209
aF2.3397544976560143
aF0.060445472832404756
aF0.52116128220872593
aF-0.48397314408588599
aF0.62250734410311881
aF0.49886147094814648
aF1.7706334675280291
aF1.9612555818496327
aF1.6229551324122116
aF1.2216345014070016
aF0.83745901167977155
aF1.7894216537720431
aF1.9844771282857288
aI4
aI4
aI2
aa(lp40
F1.0958781211814506
aF1.9891578612661838
aF3.8320226969410607
aF1.3239540049511209
aF2.3397544976560143
aF-0.54243624938847945
aF0.52116128220872593
aF-0.48397314408588599
aF0.62250734410311881
aF0.61113733822247074
aF0.9461941401299867
aF1.9612555818496327
aF1.6229551324122116
aF1.2216345014070016
aF0.89509209220609809
aF1.6495896671747787
aF0.51288698831773227
aI4
aI4
aI2
aa(lp41
F4.0808466865423672
aF1.7590310280996282
aF3.8320226969410607
aF1.3239540049511209
aF2.3397544976560143
aF-0.54243624938847945
aF0.52116128220872593
aF-0.48397314408588599
aF0.62250734410311881
aF0.61113733822247074
aF0.9461941401299867
aF2.1357172975923095
aF1.6229551324122116
aF1.2216345014070016
aF0.83745901167977155
aF1.5975331860575741
aF1.5530516101545229
aI4
aI4
aI2
aa(lp42
F1.0958781211814506
aF1.7590310280996282
aF3.8320226969410607
aF1.3239540049511209
aF2.3397544976560143
aF-0.54243624938847945
aF0.52116128220872593
aF-0.48397314408588599
aF0.62250734410311881
aF0.61113733822247074
aF0.9461941401299867
aF1.9612555818496327
aF1.6229551324122116
aF1.2216345014070016
aF0.59996138124837528
aF0.56202640195831965
aF1.5530516101545229
aI4
aI4
aI0
aa(lp43
F1.0958781211814506
aF1.7590310280996282
aF3.8320226969410607
aF1.3239540049511209
aF2.3397544976560143
aF-0.54243624938847945
aF0.52116128220872593
aF-0.48397314408588599
aF0.62250734410311881
aF0.61113733822247074
aF0.9461941401299867
aF1.9612555818496327
aF1.6229551324122116
aF2.2066024282399446
aF0.83745901167977155
aF1.8324245941273671
aF1.5530516101545229
aI4
aI2
aI2
aa(lp44
F3.3223335747455569
aF1.9891578612661838
aF3.8320226969410607
aF1.3239540049511209
aF2.3397544976560143
aF-0.51082312529991547
aF0.52116128220872593
aF-0.48397314408588599
aF0.62250734410311881
aF0.61113733822247074
aF0.9461941401299867
aF1.9612555818496327
aF1.6229551324122116
aF1.2216345014070016
aF1.9772709497726049
aF1.2796218007508406
aF0.52597551949821308
aI4
aI4
aI2
aa(lp45
F1.0958781211814506
aF1.7590310280996282
aF3.8320226969410607
aF1.3239540049511209
aF2.3397544976560143
aF-0.54243624938847945
aF0.52116128220872593
aF-0.48397314408588599
aF0.62250734410311881
aF0.61113733822247074
aF0.9461941401299867
aF1.9612555818496327
aF1.6229551324122116
aF2.7089472242029577
aF0.83745901167977155
aF1.5975331860575741
aF1.5530516101545229
aI2
aI4
aI2
aa(lp46
F1.0958781211814506
aF1.7590310280996282
aF3.8320226969410607
aF1.3239540049511209
aF2.3397544976560143
aF-0.54243624938847945
aF0.52116128220872593
aF-0.48397314408588599
aF0.62250734410311881
aF0.61113733822247074
aF0.9461941401299867
aF1.9612555818496327
aF1.6229551324122116
aF1.2216345014070016
aF0.83745901167977155
aF1.5975331860575741
aF1.5530516101545229
aI4
aI4
aI2
aa(lp47
F1.0958781211814506
aF1.7590310280996282
aF3.8320226969410607
aF1.3239540049511209
aF1.4991911133885329
aF-0.54243624938847945
aF0.52116128220872593
aF-0.48397314408588599
aF0.62250734410311881
aF0.61113733822247074
aF0.9461941401299867
aF1.9612555818496327
aF1.7409319386236384
aF1.2216345014070016
aF1.3806079641549089
aF0.56202640195831965
aF0.52597551949821308
aI4
aI2
aI2
aaa(lp48
F0.085938926247886516
aF-0.018165512468977768
aF0.0075010310993506302
aF-0.13619492184596474
aF-0.015792363139123605
aF-0.066093466082938118
aF-0.098586836181909276
aF-0.18698152186932757
aF-0.20256858596958507
aF-0.19265831702466979
aF0.32255269154734023
aF-0.33279323661691163
aF-0.33820238383724099
aF-0.074586494981099205
aF-0.18064260355634321
aF-0.02658279685421655
aF-0.39582929774034714
aF0.20503163546601089
aF-0.43996575626787959
aF0.37571547340794476
aF0.57796953521105665
aF0.46347654796677507
aF0.094267027603186282
aF-0.63099800266286532
aF-0.042503946191603692
aF0.29957537417521485
aF0.039489850665819448
aF-0.47434682292498981
aF0.36780594806412137
aF-0.68637556475296035
aF0.8281513300153559
aF0.1598187445351944
aF-0.42380808405627884
aF0.059283270592394799
aF-0.043937559349187749
aF-0.50937775093221593
aF0.45294086562450642
aF0.52014339929182296
aF0.3069152040957619
aF0.3832367224576867
aF0.19113112747147287
aF0.91523298503593042
aF-0.82523669676846834
aF-0.025196556151929395
aF0.15248290107559237
aF0.28481443738381507
aF-0.3254132727839788
aF-0.12481448571331732
aF-1.1070636949723758
aF0.39782546905637162
aF-0.30892280157087093
aF0.47243675913438432
aF-0.075845078498626206
aF-0.46145682270963928
aF1.2655528194772847
aF-0.29726961488231951
aF0.43708167806292031
aF0.14785973766886573
aF1.0544482439171987
aF1.5558286179613514
aF0.23721439905933717
aF0.20363346204770472
aF-1.2147028682394116
aF-0.99011261074769019
aF0.086122593195556929
aF-0.39474290570326542
aF-1.195594830707696
aF-1.5341631987657531
aF1.1245901484397733
aF-0.35202624665258919
aa.