(lp1
(dp2
S'mutation rate'
p3
F0.050000000000000003
sS'cam speed'
p4
I2
sS'scale'
p5
F10
sS'stale min speed'
p6
F2
sS'width'
p7
I50
sS'keep elite'
p8
I3
sS'zoom bound'
p9
I20
sS'vertices'
p10
I5
sS'stale frames'
p11
I100
sS'gravity'
p12
I100
sS'height'
p13
I30
sS'spawn x'
p14
I15
sS'crossover rate'
p15
F0.59999999999999998
sS'population size'
p16
I20
sS'zoom factor'
p17
F1.1000000000000001
sS'ground pieces'
p18
I70
sS'max fps'
p19
I100
sS'wheels'
p20
I3
sS'spawn y'
p21
I25
sa(dp22
S'disp help'
p23
I00
sS'disp sim data'
p24
I01
sS'disp settings'
p25
I00
sS'disp car data'
p26
I01
sa(lp27
(lp28
F1.0958781211814506
aF1.5011967146794203
aF4.6201671916393279
aF1.3239540049511209
aF2.4328543649781551
aF-0.44452954228330721
aF0.58367033362239074
aF-0.48397314408588599
aF0.62250734410311881
aF0.61113733822247074
aF1.3188566274827438
aF1.9612555818496327
aF1.7248398714018778
aF1.2003837047167902
aF1.3806079641549089
aF1.2449851443954927
aF0.51288698831773227
aI4
aI0
aI2
aa(lp29
F1.0958781211814506
aF1.5011967146794203
aF4.6201671916393279
aF1.3239540049511209
aF2.4328543649781551
aF-0.44452954228330721
aF0.58367033362239074
aF-0.48397314408588599
aF0.62250734410311881
aF0.61113733822247074
aF1.3188566274827438
aF1.9612555818496327
aF1.7248398714018778
aF1.2003837047167902
aF1.3806079641549089
aF1.2449851443954927
aF0.51288698831773227
aI4
aI0
aI2
aa(lp30
F1.0958781211814506
aF1.5011967146794203
aF4.6201671916393279
aF1.3239540049511209
aF2.4328543649781551
aF-0.44452954228330721
aF0.58367033362239074
aF-0.48397314408588599
aF0.62250734410311881
aF0.61113733822247074
aF1.3188566274827438
aF1.9612555818496327
aF1.7248398714018778
aF1.2003837047167902
aF1.3806079641549089
aF1.2449851443954927
aF0.71207240254161341
aI4
aI0
aI2
aa(lp31
F1.0958781211814506
aF1.5011967146794203
aF4.6201671916393279
aF1.3239540049511209
aF1.7682985542416123
aF-0.44452954228330721
aF0.58367033362239074
aF-0.014311181748513868
aF0.62250734410311881
aF0.61113733822247074
aF1.3188566274827438
aF1.9612555818496327
aF1.7248398714018778
aF1.2003837047167902
aF1.3806079641549089
aF1.2449851443954927
aF0.51288698831773227
aI4
aI0
aI2
aa(lp32
F1.7725853655391783
aF1.5011967146794203
aF4.6201671916393279
aF1.3239540049511209
aF2.4328543649781551
aF-0.44452954228330721
aF0.58367033362239074
aF-0.48397314408588599
aF0.62250734410311881
aF0.61113733822247074
aF1.7936632730558617
aF1.9612555818496327
aF1.7248398714018778
aF1.2003837047167902
aF1.3806079641549089
aF1.2449851443954927
aF0.51288698831773227
aI4
aI0
aI2
aa(lp33
F1.0958781211814506
aF1.5011967146794203
aF4.6201671916393279
aF2.4669728511649898
aF2.4328543649781551
aF-0.44452954228330721
aF0.58367033362239074
aF-0.48397314408588599
aF0.62250734410311881
aF-0.17027211898426703
aF1.3188566274827438
aF1.9612555818496327
aF1.7248398714018778
aF1.2003837047167902
aF1.3806079641549089
aF1.2449851443954927
aF0.71207240254161341
aI4
aI0
aI2
aa(lp34
F1.0958781211814506
aF1.3262181315982606
aF4.6201671916393279
aF1.3239540049511209
aF2.4328543649781551
aF0.31918373213732165
aF0.58367033362239074
aF-0.48397314408588599
aF0.62250734410311881
aF0.61113733822247074
aF1.5379169654784492
aF1.9612555818496327
aF1.6952718365497916
aF2.2078981462490814
aF1.3806079641549089
aF1.2449851443954927
aF0.51288698831773227
aI4
aI0
aI2
aa(lp35
F1.0958781211814506
aF1.5011967146794203
aF4.6201671916393279
aF1.3239540049511209
aF2.4328543649781551
aF-0.44452954228330721
aF0.58367033362239074
aF-0.48397314408588599
aF0.59061516306663187
aF-0.2450001497614771
aF1.3188566274827438
aF1.9612555818496327
aF1.7248398714018778
aF1.2003837047167902
aF1.3806079641549089
aF1.2449851443954927
aF0.71207240254161341
aI4
aI0
aI2
aa(lp36
F1.0958781211814506
aF1.5011967146794203
aF4.6201671916393279
aF1.3239540049511209
aF2.4328543649781551
aF-0.44452954228330721
aF0.58367033362239074
aF-0.48397314408588599
aF0.62250734410311881
aF0.61113733822247074
aF1.3188566274827438
aF1.9612555818496327
aF1.7248398714018778
aF1.2003837047167902
aF1.3806079641549089
aF1.2449851443954927
aF0.51288698831773227
aI4
aI0
aI2
aa(lp37
F1.0958781211814506
aF1.5011967146794203
aF4.6201671916393279
aF1.3239540049511209
aF1.8937316374734654
aF-0.44452954228330721
aF0.58367033362239074
aF-0.48397314408588599
aF0.62250734410311881
aF0.61113733822247074
aF1.3188566274827438
aF1.9612555818496327
aF1.7248398714018778
aF1.2003837047167902
aF1.3806079641549089
aF1.2449851443954927
aF0.51288698831773227
aI0
aI0
aI2
aa(lp38
F1.0958781211814506
aF1.5011967146794203
aF4.6201671916393279
aF1.3239540049511209
aF2.4328543649781551
aF-0.44452954228330721
aF0.58367033362239074
aF-0.48397314408588599
aF0.62250734410311881
aF0.61113733822247074
aF1.3188566274827438
aF1.9612555818496327
aF1.7248398714018778
aF1.2003837047167902
aF1.3806079641549089
aF1.2449851443954927
aF0.51288698831773227
aI4
aI0
aI2
aa(lp39
F1.0958781211814506
aF1.5011967146794203
aF4.6201671916393279
aF1.3239540049511209
aF1.8937316374734654
aF0.31918373213732165
aF0.58367033362239074
aF-0.48397314408588599
aF0.62250734410311881
aF-0.17027211898426703
aF1.3188566274827438
aF1.9612555818496327
aF1.7248398714018778
aF2.2078981462490814
aF1.3806079641549089
aF1.2449851443954927
aF0.51288698831773227
aI4
aI0
aI2
aa(lp40
F1.0958781211814506
aF1.3262181315982606
aF4.6201671916393279
aF2.4669728511649898
aF2.4328543649781551
aF-0.44452954228330721
aF0.58367033362239074
aF-0.48397314408588599
aF0.62250734410311881
aF0.61113733822247074
aF1.5379169654784492
aF1.9612555818496327
aF1.6952718365497916
aF1.2003837047167902
aF0.8230937325857528
aF1.2449851443954927
aF0.51288698831773227
aI4
aI0
aI2
aa(lp41
F1.0958781211814506
aF1.5011967146794203
aF4.6201671916393279
aF1.3239540049511209
aF2.4328543649781551
aF-0.44452954228330721
aF0.58367033362239074
aF-0.48397314408588599
aF0.62250734410311881
aF0.61113733822247074
aF1.3188566274827438
aF1.9612555818496327
aF1.7248398714018778
aF1.2003837047167902
aF1.3806079641549089
aF1.2449851443954927
aF0.51288698831773227
aI4
aI0
aI2
aa(lp42
F1.0958781211814506
aF1.3262181315982606
aF4.6201671916393279
aF1.3239540049511209
aF3.0027577855215157
aF-0.44452954228330721
aF0.58367033362239074
aF-0.48397314408588599
aF0.62250734410311881
aF0.61113733822247074
aF1.9160808073083073
aF1.9612555818496327
aF1.7248398714018778
aF1.2003837047167902
aF1.3806079641549089
aF0.69622219707795108
aF0.71207240254161341
aI4
aI0
aI2
aa(lp43
F1.0958781211814506
aF1.3262181315982606
aF4.6201671916393279
aF1.3239540049511209
aF3.0027577855215157
aF-0.44452954228330721
aF0.58367033362239074
aF-0.48397314408588599
aF0.62250734410311881
aF0.61113733822247074
aF1.9160808073083073
aF1.9612555818496327
aF1.7248398714018778
aF1.2003837047167902
aF1.3806079641549089
aF1.2449851443954927
aF0.51288698831773227
aI4
aI0
aI2
aa(lp44
F1.0958781211814506
aF1.5011967146794203
aF4.6201671916393279
aF1.3239540049511209
aF1.8937316374734654
aF-0.44452954228330721
aF0.58367033362239074
aF-0.48397314408588599
aF0.62250734410311881
aF0.61113733822247074
aF1.3188566274827438
aF1.5706926815907798
aF1.7248398714018778
aF1.2003837047167902
aF1.3806079641549089
aF1.5915606509130238
aF0.51288698831773227
aI4
aI0
aI2
aa(lp45
F1.0958781211814506
aF1.5011967146794203
aF4.6201671916393279
aF1.3239540049511209
aF2.4328543649781551
aF-0.44452954228330721
aF0.58367033362239074
aF-0.48397314408588599
aF0.62250734410311881
aF0.61113733822247074
aF1.3188566274827438
aF1.9612555818496327
aF1.7248398714018778
aF1.2003837047167902
aF1.3806079641549089
aF1.7746055018636098
aF0.51288698831773227
aI4
aI0
aI2
aa(lp46
F1.0958781211814506
aF1.5011967146794203
aF4.6201671916393279
aF1.3239540049511209
aF2.4328543649781551
aF-0.44452954228330721
aF0.58367033362239074
aF-0.48397314408588599
aF-0.11776879643271543
aF0.61113733822247074
aF1.4691910685456255
aF1.9612555818496327
aF1.7248398714018778
aF1.2003837047167902
aF1.3806079641549089
aF1.2449851443954927
aF0.51288698831773227
aI4
aI0
aI2
aa(lp47
F1.0958781211814506
aF1.9025132876362081
aF4.6201671916393279
aF1.3239540049511209
aF3.0027577855215157
aF-0.44452954228330721
aF0.58367033362239074
aF-0.48397314408588599
aF0.62250734410311881
aF0.61113733822247074
aF1.984507497471929
aF1.9612555818496327
aF1.8921562347330407
aF1.2003837047167902
aF1.3806079641549089
aF1.2449851443954927
aF0.51288698831773227
aI4
aI0
aI2
aaa(lp48
F0.085938926247886516
aF-0.018165512468977768
aF0.0075010310993506302
aF-0.13619492184596474
aF-0.015792363139123605
aF-0.066093466082938118
aF-0.098586836181909276
aF-0.18698152186932757
aF-0.20256858596958507
aF-0.19265831702466979
aF0.32255269154734023
aF-0.33279323661691163
aF-0.33820238383724099
aF-0.074586494981099205
aF-0.18064260355634321
aF-0.02658279685421655
aF-0.39582929774034714
aF0.20503163546601089
aF-0.43996575626787959
aF0.37571547340794476
aF0.57796953521105665
aF0.46347654796677507
aF0.094267027603186282
aF-0.63099800266286532
aF-0.042503946191603692
aF0.29957537417521485
aF0.039489850665819448
aF-0.47434682292498981
aF0.36780594806412137
aF-0.68637556475296035
aF0.8281513300153559
aF0.1598187445351944
aF-0.42380808405627884
aF0.059283270592394799
aF-0.043937559349187749
aF-0.50937775093221593
aF0.45294086562450642
aF0.52014339929182296
aF0.3069152040957619
aF0.3832367224576867
aF0.19113112747147287
aF0.91523298503593042
aF-0.82523669676846834
aF-0.025196556151929395
aF0.15248290107559237
aF0.28481443738381507
aF-0.3254132727839788
aF-0.12481448571331732
aF-1.1070636949723758
aF0.39782546905637162
aF-0.30892280157087093
aF0.47243675913438432
aF-0.075845078498626206
aF-0.46145682270963928
aF1.2655528194772847
aF-0.29726961488231951
aF0.43708167806292031
aF0.14785973766886573
aF1.0544482439171987
aF1.5558286179613514
aF0.23721439905933717
aF0.20363346204770472
aF-1.2147028682394116
aF-0.99011261074769019
aF0.086122593195556929
aF-0.39474290570326542
aF-1.195594830707696
aF-1.5341631987657531
aF1.1245901484397733
aF-0.35202624665258919
aa.