(lp1
F4.3040033044183925
aF1.1140516644712268
aF1.13382342344633
aF1.1323525167642021
aF4.1957650606825503
aF1.3017082793177757
aF1.0338708279513882
aF1.1140516644712268
aF-0.28255495246958751
aF0.10598435798959993
aF0.029403288204005174
aF-0.041642579098588151
aF0.30667631940168283
aF-0.090659887200745359
aF-0.03224688243525442
aF0.10598435798960004
aF0.5
aF3
aF1.5
aF3
aF2
aF2
aF2
aI0
aI2
aI4
a.