(lp1
F3.3691410049315405
aF1.6414763002993507
aF3.1692971530679239
aF2.7984122482420477
aF1.6138291249213608
aF0.47249693551706384
aF0.088882486144924
aF0.37313614009714025
aF-0.41223355842117249
aF0.58834764260533312
aF1
aF1
aF1
aF1
aF1
aF1
aF1
aI1
aI2
aI3
a.