(lp1
F2.5720722298480569
aF2.1213203435596424
aF3.087789572565534
aF2.5804822977282544
aF1.9711812589296693
aF0.064844027553206743
aF0.17226221075481551
aF-0.1647130721969825
aF-0.13000273650765282
aF-0.2464662426650106
aF1
aF1
aF1
aF1
aF1
aF1
aF1
aI1
aI4
aI2
a.