(lp1
F3.6013886210738209
aF1.7716909687891083
aF1.7029386365926402
aF2.2073110841524408
aF3.0666666666666664
aF3.4192266832006197
aF1.9711812589296693
aF3.1159089988138118
aF0.027770636593421036
aF0.066568163775823863
aF-0.05875582271572255
aF-0.11773257480409338
aF0
aF-0.2650428598974548
aF-0.067693022693968707
aF0.18255985313090672
aF1
aF3
aF3
aF1
aF1
aI5
aI7
a.