(lp1
F4.578815955632586
aF1.3666666666666667
aF1.4643921757659197
aF4.56508488420533
aF1.0137937550497034
aF0.072863480126999794
aF0.092844823011188016
aF-0.22150647210504326
aF0.43963458514907749
aF0.16419316601967804
aF1
aF3
aF2
aF3
aF1
aF1
aF1
aI0
aI3
aI2
a.